target datalayout = "e-m:e-p270:32:32-p271:32:32-p272:64:64-i64:64-i128:128-f80:128-n8:16:32:64-S128"
target triple = "x86_64-unknown-linux-gnu"

%"class.std::vector.400" = type { %"struct.std::_Vector_base.401" }
%"struct.std::_Vector_base.401" = type { %"struct.std::_Vector_base<cvc5::internal::NodeTemplate<true>, std::allocator<cvc5::internal::NodeTemplate<true>>>::_Vector_impl" }
%"struct.std::_Vector_base<cvc5::internal::NodeTemplate<true>, std::allocator<cvc5::internal::NodeTemplate<true>>>::_Vector_impl" = type { %"struct.std::_Vector_base<cvc5::internal::NodeTemplate<true>, std::allocator<cvc5::internal::NodeTemplate<true>>>::_Vector_impl_data" }
%"struct.std::_Vector_base<cvc5::internal::NodeTemplate<true>, std::allocator<cvc5::internal::NodeTemplate<true>>>::_Vector_impl_data" = type { ptr, ptr, ptr }
%"class.std::vector.533" = type { %"struct.std::_Vector_base.534" }
%"struct.std::_Vector_base.534" = type { %"struct.std::_Vector_base<unsigned int, std::allocator<unsigned int>>::_Vector_impl" }
%"struct.std::_Vector_base<unsigned int, std::allocator<unsigned int>>::_Vector_impl" = type { %"struct.std::_Vector_base<unsigned int, std::allocator<unsigned int>>::_Vector_impl_data" }
%"struct.std::_Vector_base<unsigned int, std::allocator<unsigned int>>::_Vector_impl_data" = type { ptr, ptr, ptr }
%"class.cvc5::internal::theory::quantifiers::EnumStreamSubstitution::CombinationState" = type { i32, i32, i32, %"class.std::vector.533", %"class.std::vector.400" }

; Function Attrs: mustprogress nounwind uwtable
define linkonce_odr hidden noundef nonnull align 4 dereferenceable(4) ptr @_ZNSt6vectorIjSaIjEEixEm(ptr noundef nonnull align 8 dereferenceable(24) %this, i64 noundef %__n) #5 comdat align 2 {
entry:
  %this.addr = alloca ptr, align 8
  %__n.addr = alloca i64, align 8
  store ptr %this, ptr %this.addr, align 8
  store i64 %__n, ptr %__n.addr, align 8
  %this1 = load ptr, ptr %this.addr, align 8
  %_M_impl = getelementptr inbounds %"struct.std::_Vector_base.534", ptr %this1, i32 0, i32 0
  %_M_start = getelementptr inbounds %"struct.std::_Vector_base<unsigned int, std::allocator<unsigned int>>::_Vector_impl_data", ptr %_M_impl, i32 0, i32 0
  %0 = load ptr, ptr %_M_start, align 8
  %1 = load i64, ptr %__n.addr, align 8
  %add.ptr = getelementptr inbounds i32, ptr %0, i64 %1
  ret ptr %add.ptr
}

; Function Attrs: mustprogress nounwind uwtable
define hidden noundef zeroext i1 @_ZN4cvc58internal6theory11quantifiers22EnumStreamSubstitution16CombinationState18getNextCombinationEv(ptr noundef nonnull align 8 dereferenceable(64) %this) #5 align 2 {
entry:
  %this.addr = alloca ptr, align 8
  %new_comb = alloca i8, align 1
  %i = alloca i32, align 4
  %j = alloca i32, align 4
  store ptr %this, ptr %this.addr, align 8
  %this1 = load ptr, ptr %this.addr, align 8
  store i8 0, ptr %new_comb, align 1
  %d_k = getelementptr inbounds %"class.cvc5::internal::theory::quantifiers::EnumStreamSubstitution::CombinationState", ptr %this1, i32 0, i32 2
  %0 = load i32, ptr %d_k, align 8
  %sub = sub i32 %0, 1
  store i32 %sub, ptr %i, align 4
  br label %for.cond

for.cond:                                         ; preds = %for.inc, %entry
  %1 = load i32, ptr %i, align 4
  %cmp = icmp sge i32 %1, 0
  br i1 %cmp, label %for.body, label %for.end

for.body:                                         ; preds = %for.cond
  %d_last_comb = getelementptr inbounds %"class.cvc5::internal::theory::quantifiers::EnumStreamSubstitution::CombinationState", ptr %this1, i32 0, i32 3
  %2 = load i32, ptr %i, align 4
  %conv = sext i32 %2 to i64
  %call = call noundef nonnull align 4 dereferenceable(4) ptr @_ZNSt6vectorIjSaIjEEixEm(ptr noundef nonnull align 8 dereferenceable(24) %d_last_comb, i64 noundef %conv) #3
  %3 = load i32, ptr %call, align 4
  %d_n = getelementptr inbounds %"class.cvc5::internal::theory::quantifiers::EnumStreamSubstitution::CombinationState", ptr %this1, i32 0, i32 1
  %4 = load i32, ptr %d_n, align 4
  %d_k2 = getelementptr inbounds %"class.cvc5::internal::theory::quantifiers::EnumStreamSubstitution::CombinationState", ptr %this1, i32 0, i32 2
  %5 = load i32, ptr %d_k2, align 8
  %sub3 = sub i32 %4, %5
  %6 = load i32, ptr %i, align 4
  %add = add i32 %sub3, %6
  %cmp4 = icmp ult i32 %3, %add
  br i1 %cmp4, label %if.then, label %if.end

if.then:                                          ; preds = %for.body
  %d_last_comb5 = getelementptr inbounds %"class.cvc5::internal::theory::quantifiers::EnumStreamSubstitution::CombinationState", ptr %this1, i32 0, i32 3
  %7 = load i32, ptr %i, align 4
  %conv6 = sext i32 %7 to i64
  %call7 = call noundef nonnull align 4 dereferenceable(4) ptr @_ZNSt6vectorIjSaIjEEixEm(ptr noundef nonnull align 8 dereferenceable(24) %d_last_comb5, i64 noundef %conv6) #3
  %8 = load i32, ptr %call7, align 4
  %add8 = add i32 %8, 1
  store i32 %add8, ptr %j, align 4
  br label %while.cond

while.cond:                                       ; preds = %while.body, %if.then
  %9 = load i32, ptr %i, align 4
  %d_k9 = getelementptr inbounds %"class.cvc5::internal::theory::quantifiers::EnumStreamSubstitution::CombinationState", ptr %this1, i32 0, i32 2
  %10 = load i32, ptr %d_k9, align 8
  %sub10 = sub i32 %10, 1
  %cmp11 = icmp ule i32 %9, %sub10
  br i1 %cmp11, label %while.body, label %while.end

while.body:                                       ; preds = %while.cond
  %11 = load i32, ptr %j, align 4
  %inc = add i32 %11, 1
  store i32 %inc, ptr %j, align 4
  %d_last_comb12 = getelementptr inbounds %"class.cvc5::internal::theory::quantifiers::EnumStreamSubstitution::CombinationState", ptr %this1, i32 0, i32 3
  %12 = load i32, ptr %i, align 4
  %inc13 = add nsw i32 %12, 1
  store i32 %inc13, ptr %i, align 4
  %conv14 = sext i32 %12 to i64
  %call15 = call noundef nonnull align 4 dereferenceable(4) ptr @_ZNSt6vectorIjSaIjEEixEm(ptr noundef nonnull align 8 dereferenceable(24) %d_last_comb12, i64 noundef %conv14) #3
  store i32 %11, ptr %call15, align 4
  br label %while.cond, !llvm.loop !42

while.end:                                        ; preds = %while.cond
  store i8 1, ptr %new_comb, align 1
  br label %for.end

if.end:                                           ; preds = %for.body
  br label %for.inc

for.inc:                                          ; preds = %if.end
  %13 = load i32, ptr %i, align 4
  %dec = add nsw i32 %13, -1
  store i32 %dec, ptr %i, align 4
  br label %for.cond, !llvm.loop !43

for.end:                                          ; preds = %while.end, %for.cond
  %14 = load i8, ptr %new_comb, align 1
  %tobool = trunc i8 %14 to i1
  ret i1 %tobool
}