; Function Attrs: mustprogress nofree norecurse nosync nounwind memory(readwrite, inaccessiblemem: none) uwtable
define hidden noundef zeroext i1 @_ZN4cvc58internal6theory11quantifiers22EnumStreamSubstitution16CombinationState18getNextCombinationEv(ptr nocapture noundef nonnull readonly align 8 dereferenceable(64) %this) local_unnamed_addr #6 align 2 {
entry:
  %d_k = getelementptr inbounds i8, ptr %this, i64 8
  %0 = load i32, ptr %d_k, align 8
  %d_last_comb = getelementptr inbounds i8, ptr %this, i64 16
  %1 = load ptr, ptr %d_last_comb, align 8
  %d_n = getelementptr inbounds i8, ptr %this, i64 4
  %2 = load i32, ptr %d_n, align 4
  %3 = zext i32 %0 to i64
  %4 = add i32 %0, -1
  br label %for.cond

for.cond:                                         ; preds = %for.body, %entry
  %indvars.iv22 = phi i32 [ %indvars.iv.next23, %for.body ], [ %4, %entry ]
  %indvars.iv = phi i64 [ %indvars.iv.next, %for.body ], [ %3, %entry ]
  %indvars.iv.next = add nsw i64 %indvars.iv, -1
  %indvars = trunc i64 %indvars.iv.next to i32
  %cmp = icmp sgt i32 %indvars, -1
  br i1 %cmp, label %for.body, label %for.end

for.body:                                         ; preds = %for.cond
  %conv = and i64 %indvars.iv.next, 2147483647
  %add.ptr.i = getelementptr inbounds i32, ptr %1, i64 %conv
  %5 = load i32, ptr %add.ptr.i, align 4
  %sub3 = sub i32 %indvars, %0
  %add = add i32 %sub3, %2
  %cmp4 = icmp ult i32 %5, %add
  %indvars.iv.next23 = add i32 %indvars.iv22, -1
  br i1 %cmp4, label %while.cond.preheader, label %for.cond, !llvm.loop !65

while.cond.preheader:                             ; preds = %for.body
  %cmp11.not14 = icmp ult i32 %4, %indvars
  br i1 %cmp11.not14, label %for.end, label %while.body.preheader

while.body.preheader:                             ; preds = %while.cond.preheader
  %6 = zext i32 %indvars.iv22 to i64
  br label %while.body

while.body:                                       ; preds = %while.body.preheader, %while.body
  %indvars.iv25 = phi i64 [ %6, %while.body.preheader ], [ %indvars.iv.next26, %while.body ]
  %j.0.in16 = phi i32 [ %5, %while.body.preheader ], [ %j.0, %while.body ]
  %j.0 = add i32 %j.0.in16, 1
  %indvars.iv.next26 = add nuw nsw i64 %indvars.iv25, 1
  %7 = load ptr, ptr %d_last_comb, align 8
  %add.ptr.i8 = getelementptr inbounds i32, ptr %7, i64 %indvars.iv25
  store i32 %j.0, ptr %add.ptr.i8, align 4
  %8 = load i32, ptr %d_k, align 8
  %sub10 = add i32 %8, -1
  %9 = zext i32 %sub10 to i64
  %cmp11.not.not = icmp ult i64 %indvars.iv25, %9
  br i1 %cmp11.not.not, label %while.body, label %for.end, !llvm.loop !66

for.end:                                          ; preds = %for.cond, %while.body, %while.cond.preheader
  ret i1 %cmp
}